target datalayout = "e-m:e-p270:32:32-p271:32:32-p272:64:64-i64:64-i128:128-f80:128-n8:16:32:64-S128"
target triple = "x86_64-pc-linux-gnu"

%struct.lpFingArgs = type { i64, i64, ptr, i32, i32, ptr }

@.str.2 = private unnamed_addr constant [9 x i8] c"t_hash.c\00", align 1
@.str.63 = private unnamed_addr constant [3 x i8] c"!s\00", align 1

; Function Attrs: nounwind uwtable
define internal i32 @cbFindInListpack(ptr noundef %0, ptr noundef %1, ptr noundef %2, ptr noundef %3, i64 noundef %4) #1 {
  %6 = alloca i32, align 4
  %7 = alloca ptr, align 8
  %8 = alloca ptr, align 8
  %9 = alloca ptr, align 8
  %10 = alloca ptr, align 8
  %11 = alloca i64, align 8
  %12 = alloca ptr, align 8
  %13 = alloca i32, align 4
  store ptr %0, ptr %7, align 8, !tbaa !33
  store ptr %1, ptr %8, align 8, !tbaa !33
  store ptr %2, ptr %9, align 8, !tbaa !10
  store ptr %3, ptr %10, align 8, !tbaa !33
  store i64 %4, ptr %11, align 8, !tbaa !37
  call void @llvm.lifetime.start.p0(i64 8, ptr %12) #12
  %14 = load ptr, ptr %9, align 8, !tbaa !10
  store ptr %14, ptr %12, align 8, !tbaa !213
  %15 = load ptr, ptr %12, align 8, !tbaa !213
  %16 = getelementptr inbounds nuw %struct.lpFingArgs, ptr %15, i32 0, i32 4
  %17 = load i32, ptr %16, align 4, !tbaa !85
  %18 = add nsw i32 %17, 1
  store i32 %18, ptr %16, align 4, !tbaa !85
  %19 = load ptr, ptr %12, align 8, !tbaa !213
  %20 = getelementptr inbounds nuw %struct.lpFingArgs, ptr %19, i32 0, i32 0
  %21 = load i64, ptr %20, align 8, !tbaa !80
  %22 = icmp eq i64 %21, 0
  br i1 %22, label %23, label %24

23:                                               ; preds = %5
  store i32 0, ptr %6, align 4
  store i32 1, ptr %13, align 4
  br label %79

24:                                               ; preds = %5
  %25 = load ptr, ptr %12, align 8, !tbaa !213
  %26 = getelementptr inbounds nuw %struct.lpFingArgs, ptr %25, i32 0, i32 4
  %27 = load i32, ptr %26, align 4, !tbaa !85
  %28 = srem i32 %27, 3
  %29 = icmp eq i32 %28, 1
  br i1 %29, label %30, label %34

30:                                               ; preds = %24
  %31 = load ptr, ptr %8, align 8, !tbaa !33
  %32 = load ptr, ptr %12, align 8, !tbaa !213
  %33 = getelementptr inbounds nuw %struct.lpFingArgs, ptr %32, i32 0, i32 5
  store ptr %31, ptr %33, align 8, !tbaa !86
  br label %78

34:                                               ; preds = %24
  %35 = load ptr, ptr %12, align 8, !tbaa !213
  %36 = getelementptr inbounds nuw %struct.lpFingArgs, ptr %35, i32 0, i32 4
  %37 = load i32, ptr %36, align 4, !tbaa !85
  %38 = srem i32 %37, 3
  %39 = icmp eq i32 %38, 0
  br i1 %39, label %40, label %77

40:                                               ; preds = %34
  %41 = load ptr, ptr %10, align 8, !tbaa !33
  %42 = icmp ne ptr %41, null
  %43 = xor i1 %42, true
  %44 = xor i1 %43, true
  %45 = xor i1 %44, true
  %46 = zext i1 %45 to i32
  %47 = sext i32 %46 to i64
  %48 = call i64 @llvm.expect.i64(i64 %47, i64 1)
  %49 = icmp ne i64 %48, 0
  br i1 %49, label %50, label %51

50:                                               ; preds = %40
  br label %53

51:                                               ; preds = %40
  call void @_serverAssert(ptr noundef @.str.63, ptr noundef @.str.2, i32 noundef 337)
  call void @abort() #14
  unreachable

52:                                               ; No predecessors!
  br label %53

53:                                               ; preds = %52, %50
  %54 = load i64, ptr %11, align 8, !tbaa !37
  %55 = icmp eq i64 %54, 0
  br i1 %55, label %62, label %56

56:                                               ; preds = %53
  %57 = load i64, ptr %11, align 8, !tbaa !37
  %58 = load ptr, ptr %12, align 8, !tbaa !213
  %59 = getelementptr inbounds nuw %struct.lpFingArgs, ptr %58, i32 0, i32 1
  %60 = load i64, ptr %59, align 8, !tbaa !82
  %61 = icmp uge i64 %57, %60
  br i1 %61, label %62, label %68

62:                                               ; preds = %56, %53
  %63 = load ptr, ptr %12, align 8, !tbaa !213
  %64 = getelementptr inbounds nuw %struct.lpFingArgs, ptr %63, i32 0, i32 5
  %65 = load ptr, ptr %64, align 8, !tbaa !86
  %66 = load ptr, ptr %12, align 8, !tbaa !213
  %67 = getelementptr inbounds nuw %struct.lpFingArgs, ptr %66, i32 0, i32 2
  store ptr %65, ptr %67, align 8, !tbaa !83
  store i32 0, ptr %6, align 4
  store i32 1, ptr %13, align 4
  br label %79

68:                                               ; preds = %56
  %69 = load ptr, ptr %12, align 8, !tbaa !213
  %70 = getelementptr inbounds nuw %struct.lpFingArgs, ptr %69, i32 0, i32 3
  %71 = load i32, ptr %70, align 8, !tbaa !84
  %72 = add nsw i32 %71, 1
  store i32 %72, ptr %70, align 8, !tbaa !84
  %73 = load ptr, ptr %12, align 8, !tbaa !213
  %74 = getelementptr inbounds nuw %struct.lpFingArgs, ptr %73, i32 0, i32 0
  %75 = load i64, ptr %74, align 8, !tbaa !80
  %76 = add i64 %75, -1
  store i64 %76, ptr %74, align 8, !tbaa !80
  br label %77

77:                                               ; preds = %68, %34
  br label %78

78:                                               ; preds = %77, %30
  store i32 1, ptr %6, align 4
  store i32 1, ptr %13, align 4
  br label %79

79:                                               ; preds = %78, %62, %23
  call void @llvm.lifetime.end.p0(i64 8, ptr %12) #12
  %80 = load i32, ptr %6, align 4
  ret i32 %80
}