; Function Attrs: nounwind uwtable
define internal range(i32 0, 2) i32 @cbFindInListpack(ptr readnone captures(none) %0, ptr noundef %1, ptr noundef captures(none) %2, ptr noundef readnone captures(address_is_null) %3, i64 noundef %4) #1 {
  %6 = getelementptr inbounds nuw i8, ptr %2, i64 28
  %7 = load i32, ptr %6, align 4, !tbaa !186
  %8 = add nsw i32 %7, 1
  store i32 %8, ptr %6, align 4, !tbaa !186
  %9 = load i64, ptr %2, align 8, !tbaa !75
  %10 = icmp eq i64 %9, 0
  br i1 %10, label %31, label %11

11:                                               ; preds = %5
  %12 = srem i32 %8, 3
  switch i32 %12, label %31 [
    i32 1, label %13
    i32 0, label %15
  ]

13:                                               ; preds = %11
  %14 = getelementptr inbounds nuw i8, ptr %2, i64 32
  store ptr %1, ptr %14, align 8, !tbaa !187
  br label %31

15:                                               ; preds = %11
  %.not = icmp eq ptr %3, null
  br i1 %.not, label %17, label %16, !prof !14

16:                                               ; preds = %15
  tail call void @_serverAssert(ptr noundef nonnull @.str.63, ptr noundef nonnull @.str.2, i32 noundef 337) #16
  tail call void @abort() #17
  unreachable

17:                                               ; preds = %15
  %18 = icmp eq i64 %4, 0
  br i1 %18, label %22, label %19

19:                                               ; preds = %17
  %20 = getelementptr inbounds nuw i8, ptr %2, i64 8
  %21 = load i64, ptr %20, align 8, !tbaa !77
  %.not17 = icmp ult i64 %4, %21
  br i1 %.not17, label %26, label %22

22:                                               ; preds = %19, %17
  %23 = getelementptr inbounds nuw i8, ptr %2, i64 32
  %24 = load ptr, ptr %23, align 8, !tbaa !187
  %25 = getelementptr inbounds nuw i8, ptr %2, i64 16
  store ptr %24, ptr %25, align 8, !tbaa !78
  br label %31

26:                                               ; preds = %19
  %27 = getelementptr inbounds nuw i8, ptr %2, i64 24
  %28 = load i32, ptr %27, align 8, !tbaa !103
  %29 = add nsw i32 %28, 1
  store i32 %29, ptr %27, align 8, !tbaa !103
  %30 = add i64 %9, -1
  store i64 %30, ptr %2, align 8, !tbaa !75
  br label %31

31:                                               ; preds = %13, %26, %11, %5, %22
  %.0 = phi i32 [ 0, %22 ], [ 0, %5 ], [ 1, %11 ], [ 1, %26 ], [ 1, %13 ]
  ret i32 %.0
}